target datalayout = "e-m:e-p270:32:32-p271:32:32-p272:64:64-i64:64-i128:128-f80:128-n8:16:32:64-S128"
target triple = "x86_64-pc-linux-gnu"

%struct._value_string_ext = type { ptr, i32, i32, ptr, ptr }
%struct.expert_field = type { i32, i32 }

@.str.43 = private unnamed_addr constant [9 x i8] c"Reserved\00", align 1
@hf_ansi_637_tele_language = internal global i32 0, align 4
@ansi_tsb58_language_ind_vals_ext = external global %struct._value_string_ext, align 8
@ei_ansi_637_unexpected_length = internal global %struct.expert_field zeroinitializer, align 4
@.str.342 = private unnamed_addr constant [8 x i8] c"%s (%u)\00", align 1

; Function Attrs: null_pointer_is_valid sspstrong uwtable
define internal void @tele_param_lang_ind(ptr noundef %0, ptr noundef %1, ptr noundef %2, i32 noundef %3, i32 noundef %4, ptr noundef %5) #0 {
  %7 = alloca ptr, align 8
  %8 = alloca ptr, align 8
  %9 = alloca ptr, align 8
  %10 = alloca i32, align 4
  %11 = alloca i32, align 4
  %12 = alloca ptr, align 8
  %13 = alloca i8, align 1
  %14 = alloca ptr, align 8
  %15 = alloca i32, align 4
  store ptr %0, ptr %7, align 8
  store ptr %1, ptr %8, align 8
  store ptr %2, ptr %9, align 8
  store i32 %3, ptr %10, align 4
  store i32 %4, ptr %11, align 4
  store ptr %5, ptr %12, align 8
  call void @llvm.lifetime.start.p0(i64 1, ptr %13) #7
  call void @llvm.lifetime.start.p0(i64 8, ptr %14) #7
  store ptr null, ptr %14, align 8
  %16 = load i32, ptr %10, align 4
  %17 = icmp ne i32 %16, 1
  br i1 %17, label %18, label %25

18:                                               ; preds = %6
  %19 = load ptr, ptr %9, align 8
  %20 = load ptr, ptr %8, align 8
  %21 = load ptr, ptr %7, align 8
  %22 = load i32, ptr %11, align 4
  %23 = load i32, ptr %10, align 4
  %24 = call ptr @proto_tree_add_expert(ptr noundef %19, ptr noundef %20, ptr noundef @ei_ansi_637_unexpected_length, ptr noundef %21, i32 noundef %22, i32 noundef %23)
  store i32 1, ptr %15, align 4
  br label %42

25:                                               ; preds = %6
  %26 = load ptr, ptr %7, align 8
  %27 = load i32, ptr %11, align 4
  %28 = call zeroext i8 @tvb_get_uint8(ptr noundef %26, i32 noundef %27)
  store i8 %28, ptr %13, align 1
  %29 = load i8, ptr %13, align 1
  %30 = zext i8 %29 to i32
  %31 = call ptr @val_to_str_ext_const(i32 noundef %30, ptr noundef @ansi_tsb58_language_ind_vals_ext, ptr noundef @.str.43)
  store ptr %31, ptr %14, align 8
  %32 = load ptr, ptr %9, align 8
  %33 = load i32, ptr @hf_ansi_637_tele_language, align 4
  %34 = load ptr, ptr %7, align 8
  %35 = load i32, ptr %11, align 4
  %36 = load i8, ptr %13, align 1
  %37 = zext i8 %36 to i32
  %38 = load ptr, ptr %14, align 8
  %39 = load i8, ptr %13, align 1
  %40 = zext i8 %39 to i32
  %41 = call ptr (ptr, i32, ptr, i32, i32, i32, ptr, ...) @proto_tree_add_uint_format_value(ptr noundef %32, i32 noundef %33, ptr noundef %34, i32 noundef %35, i32 noundef 1, i32 noundef %37, ptr noundef @.str.342, ptr noundef %38, i32 noundef %40)
  store i32 0, ptr %15, align 4
  br label %42

42:                                               ; preds = %25, %18
  call void @llvm.lifetime.end.p0(i64 8, ptr %14) #7
  call void @llvm.lifetime.end.p0(i64 1, ptr %13) #7
  %43 = load i32, ptr %15, align 4
  switch i32 %43, label %45 [
    i32 0, label %44
    i32 1, label %44
  ]

44:                                               ; preds = %42, %42
  ret void

45:                                               ; preds = %42
  unreachable
}