; Function Attrs: null_pointer_is_valid sspstrong uwtable
define internal void @tele_param_lang_ind(ptr noundef %0, ptr noundef %1, ptr noundef %2, i32 noundef %3, i32 noundef %4, ptr readnone captures(none) %5) #0 {
  %.not = icmp eq i32 %3, 1
  br i1 %.not, label %9, label %7

7:                                                ; preds = %6
  %8 = tail call ptr @proto_tree_add_expert(ptr noundef %2, ptr noundef %1, ptr noundef nonnull @ei_ansi_637_unexpected_length, ptr noundef %0, i32 noundef %4, i32 noundef %3)
  br label %15

9:                                                ; preds = %6
  %10 = tail call zeroext i8 @tvb_get_uint8(ptr noundef %0, i32 noundef %4)
  %11 = zext i8 %10 to i32
  %12 = tail call ptr @val_to_str_ext_const(i32 noundef %11, ptr noundef nonnull @ansi_tsb58_language_ind_vals_ext, ptr noundef nonnull @.str.43)
  %13 = load i32, ptr @hf_ansi_637_tele_language, align 4
  %14 = tail call ptr (ptr, i32, ptr, i32, i32, i32, ptr, ...) @proto_tree_add_uint_format_value(ptr noundef %2, i32 noundef %13, ptr noundef %0, i32 noundef %4, i32 noundef 1, i32 noundef %11, ptr noundef nonnull @.str.342, ptr noundef %12, i32 noundef %11)
  br label %15

15:                                               ; preds = %9, %7
  ret void
}